target datalayout = "e-m:e-p270:32:32-p271:32:32-p272:64:64-i64:64-i128:128-f80:128-n8:16:32:64-S128"
target triple = "x86_64-pc-linux-gnu"

@.str.5 = private unnamed_addr constant [33 x i8] c"../openssl/test/quic_wire_test.c\00", align 1
@.str.23 = private unnamed_addr constant [9 x i8] c"fail < 0\00", align 1
@encode_case_7_token = internal constant [16 x i8] c"\DE\06\CBv]\B1\A7qx\09\BB\E8P\19\12\9A", align 16
@.str.60 = private unnamed_addr constant [63 x i8] c"ossl_quic_wire_decode_frame_new_token(pkt, &token, &token_len)\00", align 1
@.str.61 = private unnamed_addr constant [6 x i8] c"token\00", align 1
@.str.62 = private unnamed_addr constant [20 x i8] c"encode_case_7_token\00", align 1

; Function Attrs: nounwind uwtable
define internal i32 @encode_case_7_dec(ptr noundef %0, i64 noundef %1) #0 {
  %3 = alloca i32, align 4
  %4 = alloca ptr, align 8
  %5 = alloca i64, align 8
  %6 = alloca ptr, align 8
  %7 = alloca i64, align 8
  %8 = alloca i32, align 4
  store ptr %0, ptr %4, align 8, !tbaa !40
  store i64 %1, ptr %5, align 8, !tbaa !19
  call void @llvm.lifetime.start.p0(i64 8, ptr %6) #5
  store ptr null, ptr %6, align 8, !tbaa !39
  call void @llvm.lifetime.start.p0(i64 8, ptr %7) #5
  store i64 0, ptr %7, align 8, !tbaa !19
  %9 = load ptr, ptr %4, align 8, !tbaa !40
  %10 = call i32 @ossl_quic_wire_decode_frame_new_token(ptr noundef %9, ptr noundef %6, ptr noundef %7)
  %11 = load i64, ptr %5, align 8, !tbaa !19
  %12 = icmp slt i64 %11, 0
  %13 = zext i1 %12 to i32
  %14 = call i32 @test_int_eq(ptr noundef @.str.5, i32 noundef 313, ptr noundef @.str.60, ptr noundef @.str.23, i32 noundef %10, i32 noundef %13)
  %15 = icmp ne i32 %14, 0
  br i1 %15, label %17, label %16

16:                                               ; preds = %2
  store i32 0, ptr %3, align 4
  store i32 1, ptr %8, align 4
  br label %28

17:                                               ; preds = %2
  %18 = load i64, ptr %5, align 8, !tbaa !19
  %19 = icmp sge i64 %18, 0
  br i1 %19, label %20, label %21

20:                                               ; preds = %17
  store i32 1, ptr %3, align 4
  store i32 1, ptr %8, align 4
  br label %28

21:                                               ; preds = %17
  %22 = load ptr, ptr %6, align 8, !tbaa !39
  %23 = load i64, ptr %7, align 8, !tbaa !19
  %24 = call i32 @test_mem_eq(ptr noundef @.str.5, i32 noundef 320, ptr noundef @.str.61, ptr noundef @.str.62, ptr noundef %22, i64 noundef %23, ptr noundef @encode_case_7_token, i64 noundef 16)
  %25 = icmp ne i32 %24, 0
  br i1 %25, label %27, label %26

26:                                               ; preds = %21
  store i32 0, ptr %3, align 4
  store i32 1, ptr %8, align 4
  br label %28

27:                                               ; preds = %21
  store i32 1, ptr %3, align 4
  store i32 1, ptr %8, align 4
  br label %28

28:                                               ; preds = %27, %26, %20, %16
  call void @llvm.lifetime.end.p0(i64 8, ptr %7) #5
  call void @llvm.lifetime.end.p0(i64 8, ptr %6) #5
  %29 = load i32, ptr %3, align 4
  ret i32 %29
}