; Function Attrs: nounwind uwtable
define internal range(i32 0, 2) i32 @encode_case_7_dec(ptr noundef %0, i64 noundef %1) #0 {
  %3 = alloca ptr, align 8
  %4 = alloca i64, align 8
  call void @llvm.lifetime.start.p0(i64 8, ptr nonnull %3) #4
  store ptr null, ptr %3, align 8, !tbaa !32
  call void @llvm.lifetime.start.p0(i64 8, ptr nonnull %4) #4
  store i64 0, ptr %4, align 8, !tbaa !13
  %5 = call i32 @ossl_quic_wire_decode_frame_new_token(ptr noundef %0, ptr noundef nonnull %3, ptr noundef nonnull %4) #4
  %.lobit = lshr i64 %1, 63
  %6 = trunc nuw nsw i64 %.lobit to i32
  %7 = call i32 @test_int_eq(ptr noundef nonnull @.str.5, i32 noundef 313, ptr noundef nonnull @.str.60, ptr noundef nonnull @.str.23, i32 noundef %5, i32 noundef %6) #4
  %.not = icmp eq i32 %7, 0
  br i1 %.not, label %14, label %8

8:                                                ; preds = %2
  %9 = icmp sgt i64 %1, -1
  br i1 %9, label %14, label %10

10:                                               ; preds = %8
  %11 = load ptr, ptr %3, align 8, !tbaa !32
  %12 = load i64, ptr %4, align 8, !tbaa !13
  %13 = call i32 @test_mem_eq(ptr noundef nonnull @.str.5, i32 noundef 320, ptr noundef nonnull @.str.61, ptr noundef nonnull @.str.62, ptr noundef %11, i64 noundef %12, ptr noundef nonnull @encode_case_7_token, i64 noundef 16) #4
  %.not3 = icmp ne i32 %13, 0
  %. = zext i1 %.not3 to i32
  br label %14

14:                                               ; preds = %10, %8, %2
  %.0 = phi i32 [ 0, %2 ], [ 1, %8 ], [ %., %10 ]
  call void @llvm.lifetime.end.p0(i64 8, ptr nonnull %4) #4
  call void @llvm.lifetime.end.p0(i64 8, ptr nonnull %3) #4
  ret i32 %.0
}